; Function Attrs: mustprogress nounwind uwtable
define internal fastcc void @_ZL20dumpPreviousDeclImplIN5clang29LifetimeExtendedTemporaryDeclEEvRN4llvm11raw_ostreamEPKNS0_9MergeableIT_EE(ptr noundef nonnull align 8 dereferenceable(48) %0, ptr noundef %1) unnamed_addr #0 {
  %3 = getelementptr inbounds nuw i8, ptr %1, i64 28
  %4 = load i32, ptr %3, align 4
  %5 = and i32 %4, 32768
  %.not.i = icmp eq i32 %5, 0
  br i1 %.not.i, label %_ZNK5clang9MergeableINS_29LifetimeExtendedTemporaryDeclEE12getFirstDeclEv.exit.thread, label %_ZNK5clang9MergeableINS_29LifetimeExtendedTemporaryDeclEE12getFirstDeclEv.exit

_ZNK5clang9MergeableINS_29LifetimeExtendedTemporaryDeclEE12getFirstDeclEv.exit: ; preds = %2
  %6 = tail call noundef ptr @_ZN5clang20getPrimaryMergedDeclEPNS_4DeclE(ptr noundef nonnull %1) #18
  %.not = icmp eq ptr %6, %1
  br i1 %.not, label %_ZNK5clang9MergeableINS_29LifetimeExtendedTemporaryDeclEE12getFirstDeclEv.exit.thread, label %7

7:                                                ; preds = %_ZNK5clang9MergeableINS_29LifetimeExtendedTemporaryDeclEE12getFirstDeclEv.exit
  %8 = getelementptr inbounds nuw i8, ptr %0, i64 24
  %9 = load ptr, ptr %8, align 8
  %10 = getelementptr inbounds nuw i8, ptr %0, i64 32
  %11 = load ptr, ptr %10, align 8
  %12 = ptrtoint ptr %9 to i64
  %13 = ptrtoint ptr %11 to i64
  %14 = sub i64 %12, %13
  %15 = icmp ult i64 %14, 7
  br i1 %15, label %16, label %18

16:                                               ; preds = %7
  %17 = tail call noundef nonnull align 8 dereferenceable(48) ptr @_ZN4llvm11raw_ostream5writeEPKcm(ptr noundef nonnull align 8 dereferenceable(48) %0, ptr noundef nonnull @.str.799, i64 noundef 7) #18
  br label %_ZN4llvm11raw_ostreamlsEPKc.exit

18:                                               ; preds = %7
  tail call void @llvm.memcpy.p0.p0.i64(ptr noundef nonnull align 1 dereferenceable(7) %11, ptr noundef nonnull align 1 dereferenceable(7) @.str.799, i64 7, i1 false)
  %19 = load ptr, ptr %10, align 8
  %20 = getelementptr inbounds i8, ptr %19, i64 7
  store ptr %20, ptr %10, align 8
  br label %_ZN4llvm11raw_ostreamlsEPKc.exit

_ZN4llvm11raw_ostreamlsEPKc.exit:                 ; preds = %16, %18
  %.0.i.i = phi ptr [ %17, %16 ], [ %0, %18 ]
  %21 = tail call noundef nonnull align 8 dereferenceable(48) ptr @_ZN4llvm11raw_ostreamlsEPKv(ptr noundef nonnull align 8 dereferenceable(48) %.0.i.i, ptr noundef %6) #18
  br label %_ZNK5clang9MergeableINS_29LifetimeExtendedTemporaryDeclEE12getFirstDeclEv.exit.thread

_ZNK5clang9MergeableINS_29LifetimeExtendedTemporaryDeclEE12getFirstDeclEv.exit.thread: ; preds = %2, %_ZN4llvm11raw_ostreamlsEPKc.exit, %_ZNK5clang9MergeableINS_29LifetimeExtendedTemporaryDeclEE12getFirstDeclEv.exit
  ret void
}